; Function Attrs: nounwind sspstrong uwtable
define dso_local void @tcg_gen_vec_add32_i64(ptr noundef %0, ptr noundef %1, ptr noundef %2) local_unnamed_addr #2 {
  %4 = tail call ptr @tcg_temp_ebb_new_i64() #10
  %5 = tail call ptr @tcg_temp_ebb_new_i64() #10
  tail call void @tcg_gen_andi_i64(ptr noundef %4, ptr noundef %1, i64 noundef -4294967296) #10
  tail call void @tcg_gen_add_i64(ptr noundef %5, ptr noundef %1, ptr noundef %2) #10
  tail call void @tcg_gen_add_i64(ptr noundef %4, ptr noundef %4, ptr noundef %2) #10
  tail call void @tcg_gen_deposit_i64(ptr noundef %0, ptr noundef %4, ptr noundef %5, i32 noundef 0, i32 noundef 32) #10
  tail call void @tcg_temp_free_i64(ptr noundef %4) #10
  tail call void @tcg_temp_free_i64(ptr noundef %5) #10
  ret void
}